; Function Attrs: nounwind uwtable
define ptr @l_Lake_Toml_expressionCore_parenthesizer(ptr noundef %0, ptr noundef %1, ptr noundef %2, ptr noundef %3, ptr noundef %4, ptr noundef %5) #1 {
  tail call void @lean_inc_heartbeat() #4
  %7 = tail call noalias ptr @mi_malloc_small(i64 noundef 32) #4
  %8 = icmp eq ptr %7, null
  br i1 %8, label %9, label %lean_alloc_closure.exit

9:                                                ; preds = %6
  tail call void @lean_internal_panic_out_of_memory() #5
  unreachable

lean_alloc_closure.exit:                          ; preds = %6
  %10 = getelementptr inbounds nuw i8, ptr %7, i64 4
  store i32 1, ptr %7, align 4, !tbaa !4
  store i32 -184549344, ptr %10, align 4
  %11 = getelementptr inbounds nuw i8, ptr %7, i64 8
  store ptr @l_Lake_Toml_keyvalCore_parenthesizer, ptr %11, align 8, !tbaa !10
  %12 = getelementptr inbounds nuw i8, ptr %7, i64 16
  store i16 6, ptr %12, align 8, !tbaa !18
  %13 = getelementptr inbounds nuw i8, ptr %7, i64 18
  store i16 1, ptr %13, align 2, !tbaa !18
  %14 = getelementptr inbounds nuw i8, ptr %7, i64 24
  store ptr %0, ptr %14, align 8, !tbaa !10
  %15 = load ptr, ptr @l_Lake_Toml_expressionCore_parenthesizer___closed__2, align 8, !tbaa !10
  tail call void @lean_inc_heartbeat() #4
  %16 = tail call noalias ptr @mi_malloc_small(i64 noundef 40) #4
  %17 = icmp eq ptr %16, null
  br i1 %17, label %18, label %lean_alloc_closure.exit14

18:                                               ; preds = %lean_alloc_closure.exit
  tail call void @lean_internal_panic_out_of_memory() #5
  unreachable

lean_alloc_closure.exit14:                        ; preds = %lean_alloc_closure.exit
  %19 = getelementptr inbounds nuw i8, ptr %16, i64 4
  store i32 1, ptr %16, align 4, !tbaa !4
  store i32 -184549336, ptr %19, align 4
  %20 = getelementptr inbounds nuw i8, ptr %16, i64 8
  store ptr @l_Lean_PrettyPrinter_Parenthesizer_orelse_parenthesizer, ptr %20, align 8, !tbaa !10
  %21 = getelementptr inbounds nuw i8, ptr %16, i64 16
  store i16 7, ptr %21, align 8, !tbaa !18
  %22 = getelementptr inbounds nuw i8, ptr %16, i64 18
  store i16 2, ptr %22, align 2, !tbaa !18
  %23 = getelementptr inbounds nuw i8, ptr %16, i64 24
  store ptr %7, ptr %23, align 8, !tbaa !10
  %24 = getelementptr inbounds nuw i8, ptr %16, i64 32
  store ptr %15, ptr %24, align 8, !tbaa !10
  %25 = load ptr, ptr @l_Lake_Toml_expressionCore_parenthesizer___closed__1, align 8, !tbaa !10
  %26 = tail call ptr @l_Lean_PrettyPrinter_Parenthesizer_withAntiquot_parenthesizer(ptr noundef %25, ptr noundef nonnull %16, ptr noundef %1, ptr noundef %2, ptr noundef %3, ptr noundef %4, ptr noundef %5) #4
  ret ptr %26
}